; ModuleID = '9/778.c'
source_filename = "9/778.c"
target datalayout = "e-m:e-p270:32:32-p271:32:32-p272:64:64-i64:64-f80:128-n8:16:32:64-S128"
target triple = "x86_64-pc-linux-gnu"

%struct.bing = type { [10 x i8], i32 }

@.str = private unnamed_addr constant [3 x i8] c"%d\00", align 1
@.str.1 = private unnamed_addr constant [5 x i8] c"%s%d\00", align 1
@bing = common dso_local global [1000 x %struct.bing] zeroinitializer, align 16
@.str.2 = private unnamed_addr constant [4 x i8] c"%s\0A\00", align 1

; Function Attrs: noinline nounwind uwtable
define dso_local i32 @main() #0 {
  %1 = alloca i32, align 4
  %2 = alloca i32, align 4
  %3 = alloca i32, align 4
  %4 = alloca i32, align 4
  %5 = alloca i32, align 4
  %6 = alloca i32, align 4
  %7 = alloca [1000 x i32], align 16
  %8 = alloca i32, align 4
  %9 = alloca [1000 x i32], align 16
  store i32 0, i32* %1, align 4
  store i32 1, i32* %4, align 4
  store i32 1, i32* %5, align 4
  %10 = call i32 (i8*, ...) @__isoc99_scanf(i8* getelementptr inbounds ([3 x i8], [3 x i8]* @.str, i64 0, i64 0), i32* %2)
  store i32 1, i32* %3, align 4
  br label %11

11:                                               ; preds = %46, %0
  %12 = load i32, i32* %3, align 4
  %13 = load i32, i32* %2, align 4
  %14 = icmp sle i32 %12, %13
  br i1 %14, label %15, label %49

15:                                               ; preds = %11
  %16 = load i32, i32* %3, align 4
  %17 = sext i32 %16 to i64
  %18 = getelementptr inbounds [1000 x %struct.bing], [1000 x %struct.bing]* @bing, i64 0, i64 %17
  %19 = getelementptr inbounds %struct.bing, %struct.bing* %18, i32 0, i32 0
  %20 = load i32, i32* %3, align 4
  %21 = sext i32 %20 to i64
  %22 = getelementptr inbounds [1000 x %struct.bing], [1000 x %struct.bing]* @bing, i64 0, i64 %21
  %23 = getelementptr inbounds %struct.bing, %struct.bing* %22, i32 0, i32 1
  %24 = call i32 (i8*, ...) @__isoc99_scanf(i8* getelementptr inbounds ([5 x i8], [5 x i8]* @.str.1, i64 0, i64 0), [10 x i8]* %19, i32* %23)
  %25 = load i32, i32* %3, align 4
  %26 = sext i32 %25 to i64
  %27 = getelementptr inbounds [1000 x %struct.bing], [1000 x %struct.bing]* @bing, i64 0, i64 %26
  %28 = getelementptr inbounds %struct.bing, %struct.bing* %27, i32 0, i32 1
  %29 = load i32, i32* %28, align 4
  %30 = icmp sge i32 %29, 60
  br i1 %30, label %31, label %38

31:                                               ; preds = %15
  %32 = load i32, i32* %3, align 4
  %33 = load i32, i32* %4, align 4
  %34 = sext i32 %33 to i64
  %35 = getelementptr inbounds [1000 x i32], [1000 x i32]* %7, i64 0, i64 %34
  store i32 %32, i32* %35, align 4
  %36 = load i32, i32* %4, align 4
  %37 = add nsw i32 %36, 1
  store i32 %37, i32* %4, align 4
  br label %45

38:                                               ; preds = %15
  %39 = load i32, i32* %3, align 4
  %40 = load i32, i32* %5, align 4
  %41 = sext i32 %40 to i64
  %42 = getelementptr inbounds [1000 x i32], [1000 x i32]* %9, i64 0, i64 %41
  store i32 %39, i32* %42, align 4
  %43 = load i32, i32* %5, align 4
  %44 = add nsw i32 %43, 1
  store i32 %44, i32* %5, align 4
  br label %45

45:                                               ; preds = %38, %31
  br label %46

46:                                               ; preds = %45
  %47 = load i32, i32* %3, align 4
  %48 = add nsw i32 %47, 1
  store i32 %48, i32* %3, align 4
  br label %11

49:                                               ; preds = %11
  %50 = load i32, i32* %4, align 4
  %51 = add nsw i32 %50, -1
  store i32 %51, i32* %4, align 4
  %52 = load i32, i32* %5, align 4
  %53 = add nsw i32 %52, -1
  store i32 %53, i32* %5, align 4
  %54 = load i32, i32* %4, align 4
  %55 = icmp ne i32 %54, 0
  br i1 %55, label %56, label %115

56:                                               ; preds = %49
  store i32 1, i32* %3, align 4
  br label %57

57:                                               ; preds = %111, %56
  %58 = load i32, i32* %3, align 4
  %59 = load i32, i32* %4, align 4
  %60 = icmp slt i32 %58, %59
  br i1 %60, label %61, label %114

61:                                               ; preds = %57
  store i32 1, i32* %6, align 4
  br label %62

62:                                               ; preds = %107, %61
  %63 = load i32, i32* %6, align 4
  %64 = load i32, i32* %4, align 4
  %65 = load i32, i32* %3, align 4
  %66 = sub nsw i32 %64, %65
  %67 = add nsw i32 %66, 1
  %68 = icmp slt i32 %63, %67
  br i1 %68, label %69, label %110

69:                                               ; preds = %62
  %70 = load i32, i32* %6, align 4
  %71 = sext i32 %70 to i64
  %72 = getelementptr inbounds [1000 x i32], [1000 x i32]* %7, i64 0, i64 %71
  %73 = load i32, i32* %72, align 4
  %74 = sext i32 %73 to i64
  %75 = getelementptr inbounds [1000 x %struct.bing], [1000 x %struct.bing]* @bing, i64 0, i64 %74
  %76 = getelementptr inbounds %struct.bing, %struct.bing* %75, i32 0, i32 1
  %77 = load i32, i32* %76, align 4
  %78 = load i32, i32* %6, align 4
  %79 = add nsw i32 %78, 1
  %80 = sext i32 %79 to i64
  %81 = getelementptr inbounds [1000 x i32], [1000 x i32]* %7, i64 0, i64 %80
  %82 = load i32, i32* %81, align 4
  %83 = sext i32 %82 to i64
  %84 = getelementptr inbounds [1000 x %struct.bing], [1000 x %struct.bing]* @bing, i64 0, i64 %83
  %85 = getelementptr inbounds %struct.bing, %struct.bing* %84, i32 0, i32 1
  %86 = load i32, i32* %85, align 4
  %87 = icmp slt i32 %77, %86
  br i1 %87, label %88, label %106

88:                                               ; preds = %69
  %89 = load i32, i32* %6, align 4
  %90 = sext i32 %89 to i64
  %91 = getelementptr inbounds [1000 x i32], [1000 x i32]* %7, i64 0, i64 %90
  %92 = load i32, i32* %91, align 4
  store i32 %92, i32* %8, align 4
  %93 = load i32, i32* %6, align 4
  %94 = add nsw i32 %93, 1
  %95 = sext i32 %94 to i64
  %96 = getelementptr inbounds [1000 x i32], [1000 x i32]* %7, i64 0, i64 %95
  %97 = load i32, i32* %96, align 4
  %98 = load i32, i32* %6, align 4
  %99 = sext i32 %98 to i64
  %100 = getelementptr inbounds [1000 x i32], [1000 x i32]* %7, i64 0, i64 %99
  store i32 %97, i32* %100, align 4
  %101 = load i32, i32* %8, align 4
  %102 = load i32, i32* %6, align 4
  %103 = add nsw i32 %102, 1
  %104 = sext i32 %103 to i64
  %105 = getelementptr inbounds [1000 x i32], [1000 x i32]* %7, i64 0, i64 %104
  store i32 %101, i32* %105, align 4
  br label %106

106:                                              ; preds = %88, %69
  br label %107

107:                                              ; preds = %106
  %108 = load i32, i32* %6, align 4
  %109 = add nsw i32 %108, 1
  store i32 %109, i32* %6, align 4
  br label %62

110:                                              ; preds = %62
  br label %111

111:                                              ; preds = %110
  %112 = load i32, i32* %3, align 4
  %113 = add nsw i32 %112, 1
  store i32 %113, i32* %3, align 4
  br label %57

114:                                              ; preds = %57
  br label %115

115:                                              ; preds = %114, %49
  store i32 1, i32* %3, align 4
  br label %116

116:                                              ; preds = %130, %115
  %117 = load i32, i32* %3, align 4
  %118 = load i32, i32* %4, align 4
  %119 = icmp sle i32 %117, %118
  br i1 %119, label %120, label %133

120:                                              ; preds = %116
  %121 = load i32, i32* %3, align 4
  %122 = sext i32 %121 to i64
  %123 = getelementptr inbounds [1000 x i32], [1000 x i32]* %7, i64 0, i64 %122
  %124 = load i32, i32* %123, align 4
  %125 = sext i32 %124 to i64
  %126 = getelementptr inbounds [1000 x %struct.bing], [1000 x %struct.bing]* @bing, i64 0, i64 %125
  %127 = getelementptr inbounds %struct.bing, %struct.bing* %126, i32 0, i32 0
  %128 = getelementptr inbounds [10 x i8], [10 x i8]* %127, i64 0, i64 0
  %129 = call i32 (i8*, ...) @printf(i8* getelementptr inbounds ([4 x i8], [4 x i8]* @.str.2, i64 0, i64 0), i8* %128)
  br label %130

130:                                              ; preds = %120
  %131 = load i32, i32* %3, align 4
  %132 = add nsw i32 %131, 1
  store i32 %132, i32* %3, align 4
  br label %116

133:                                              ; preds = %116
  store i32 1, i32* %3, align 4
  br label %134

134:                                              ; preds = %148, %133
  %135 = load i32, i32* %3, align 4
  %136 = load i32, i32* %5, align 4
  %137 = icmp sle i32 %135, %136
  br i1 %137, label %138, label %151

138:                                              ; preds = %134
  %139 = load i32, i32* %3, align 4
  %140 = sext i32 %139 to i64
  %141 = getelementptr inbounds [1000 x i32], [1000 x i32]* %9, i64 0, i64 %140
  %142 = load i32, i32* %141, align 4
  %143 = sext i32 %142 to i64
  %144 = getelementptr inbounds [1000 x %struct.bing], [1000 x %struct.bing]* @bing, i64 0, i64 %143
  %145 = getelementptr inbounds %struct.bing, %struct.bing* %144, i32 0, i32 0
  %146 = getelementptr inbounds [10 x i8], [10 x i8]* %145, i64 0, i64 0
  %147 = call i32 (i8*, ...) @printf(i8* getelementptr inbounds ([4 x i8], [4 x i8]* @.str.2, i64 0, i64 0), i8* %146)
  br label %148

148:                                              ; preds = %138
  %149 = load i32, i32* %3, align 4
  %150 = add nsw i32 %149, 1
  store i32 %150, i32* %3, align 4
  br label %134

151:                                              ; preds = %134
  %152 = call i32 @getchar()
  %153 = call i32 @getchar()
  %154 = call i32 @getchar()
  %155 = load i32, i32* %1, align 4
  ret i32 %155
}

declare dso_local i32 @__isoc99_scanf(i8*, ...) #1

declare dso_local i32 @printf(i8*, ...) #1

declare dso_local i32 @getchar() #1


!llvm.module.flags = !{!0}
!llvm.ident = !{!1}

!0 = !{i32 1, !"wchar_size", i32 4}
!1 = !{!"clang version 10.0.0-4ubuntu1 "}
